; Function Attrs: mustprogress nofree norecurse nosync nounwind willreturn memory(read, inaccessiblemem: none) uwtable
define noundef zeroext i1 @_ZNK7Imf_3_218DeepTiledInputFile12isValidLevelEii(ptr nocapture noundef nonnull readonly align 8 dereferenceable(16) %this, i32 noundef %lx, i32 noundef %ly) local_unnamed_addr #12 align 2 {
entry:
  %0 = or i32 %ly, %lx
  %or.cond.not = icmp sgt i32 %0, -1
  br i1 %or.cond.not, label %if.end, label %return

if.end:                                           ; preds = %entry
  %_data.i = getelementptr inbounds i8, ptr %this, i64 8
  %1 = load ptr, ptr %_data.i, align 8
  %mode.i = getelementptr inbounds i8, ptr %1, i64 104
  %2 = load i32, ptr %mode.i, align 8
  %cmp3 = icmp ne i32 %2, 1
  %cmp4.not = icmp eq i32 %lx, %ly
  %or.cond = or i1 %cmp4.not, %cmp3
  br i1 %or.cond, label %if.end6, label %return

if.end6:                                          ; preds = %if.end
  %numXLevels.i = getelementptr inbounds i8, ptr %1, i64 244
  %3 = load i32, ptr %numXLevels.i, align 4
  %cmp8.not = icmp sgt i32 %3, %lx
  br i1 %cmp8.not, label %lor.lhs.false9, label %return

lor.lhs.false9:                                   ; preds = %if.end6
  %numYLevels.i = getelementptr inbounds i8, ptr %1, i64 248
  %4 = load i32, ptr %numYLevels.i, align 8
  %cmp11.not = icmp sgt i32 %4, %ly
  br label %return

return:                                           ; preds = %lor.lhs.false9, %if.end6, %if.end, %entry
  %retval.0 = phi i1 [ false, %entry ], [ false, %if.end ], [ false, %if.end6 ], [ %cmp11.not, %lor.lhs.false9 ]
  ret i1 %retval.0
}